; Function Attrs: nounwind sspstrong uwtable
define internal range(i64 0, 21) i64 @addrinfo_ipv4_private_p(i64 noundef %0) #0 {
  %2 = tail call ptr @rb_check_typeddata(i64 noundef %0, ptr noundef nonnull @addrinfo_type) #21
  %.not.i.i = icmp eq ptr %2, null
  br i1 %.not.i.i, label %3, label %get_addrinfo.exit.i

3:                                                ; preds = %1
  %4 = load i64, ptr @rb_eTypeError, align 8, !tbaa !35
  tail call void (i64, ptr, ...) @rb_raise(i64 noundef %4, ptr noundef nonnull @.str.101) #23
  unreachable

get_addrinfo.exit.i:                              ; preds = %1
  %5 = getelementptr inbounds nuw i8, ptr %2, i64 28
  %6 = load i32, ptr %5, align 4, !tbaa !118
  %7 = icmp ugt i32 %6, 1
  br i1 %7, label %ai_get_afamily.exit.i, label %extract_in_addr.exit.thread

ai_get_afamily.exit.i:                            ; preds = %get_addrinfo.exit.i
  %8 = getelementptr inbounds nuw i8, ptr %2, i64 32
  %9 = load i16, ptr %8, align 2, !tbaa !91
  %.not.i = icmp eq i16 %9, 2
  br i1 %.not.i, label %10, label %extract_in_addr.exit.thread

10:                                               ; preds = %ai_get_afamily.exit.i
  %11 = getelementptr inbounds nuw i8, ptr %2, i64 36
  %12 = load i32, ptr %11, align 4, !tbaa !49
  %13 = tail call noundef i32 @llvm.bswap.i32(i32 %12)
  %14 = and i32 %13, -16777216
  %15 = icmp eq i32 %14, 167772160
  %16 = and i32 %13, -1048576
  %17 = icmp eq i32 %16, -1408237568
  %or.cond = or i1 %15, %17
  %18 = and i32 %13, -65536
  %19 = icmp eq i32 %18, -1062731776
  %or.cond4 = or i1 %19, %or.cond
  %spec.select = select i1 %or.cond4, i64 20, i64 0
  br label %extract_in_addr.exit.thread

extract_in_addr.exit.thread:                      ; preds = %get_addrinfo.exit.i, %ai_get_afamily.exit.i, %10
  %.0 = phi i64 [ %spec.select, %10 ], [ 0, %ai_get_afamily.exit.i ], [ 0, %get_addrinfo.exit.i ]
  ret i64 %.0
}